target datalayout = "e-m:e-p270:32:32-p271:32:32-p272:64:64-i64:64-i128:128-f80:128-n8:16:32:64-S128"
target triple = "x86_64-pc-linux-gnu"

@.str.46 = private unnamed_addr constant [7 x i8] c"USERID\00", align 1

; Function Attrs: nounwind uwtable
define internal zeroext i1 @interpret_ident_response(ptr noundef %0, ptr noundef %1) #0 {
  %3 = alloca i1, align 1
  %4 = alloca ptr, align 8
  %5 = alloca ptr, align 8
  %6 = alloca ptr, align 8
  %7 = alloca i32, align 4
  %8 = alloca [80 x i8], align 16
  %9 = alloca i32, align 4
  store ptr %0, ptr %4, align 8
  store ptr %1, ptr %5, align 8
  call void @llvm.lifetime.start.p0(i64 8, ptr %6) #14
  %10 = load ptr, ptr %4, align 8
  store ptr %10, ptr %6, align 8
  %11 = load ptr, ptr %4, align 8
  %12 = call i64 @strlen(ptr noundef %11) #17
  %13 = icmp ult i64 %12, 2
  br i1 %13, label %14, label %15

14:                                               ; preds = %2
  store i1 false, ptr %3, align 1
  store i32 1, ptr %7, align 4
  br label %167

15:                                               ; preds = %2
  %16 = load ptr, ptr %4, align 8
  %17 = load ptr, ptr %4, align 8
  %18 = call i64 @strlen(ptr noundef %17) #17
  %19 = sub i64 %18, 2
  %20 = getelementptr inbounds nuw i8, ptr %16, i64 %19
  %21 = load i8, ptr %20, align 1
  %22 = sext i8 %21 to i32
  %23 = icmp ne i32 %22, 13
  br i1 %23, label %24, label %25

24:                                               ; preds = %15
  store i1 false, ptr %3, align 1
  store i32 1, ptr %7, align 4
  br label %167

25:                                               ; preds = %15
  br label %26

26:                                               ; preds = %38, %25
  %27 = load ptr, ptr %6, align 8
  %28 = load i8, ptr %27, align 1
  %29 = sext i8 %28 to i32
  %30 = icmp ne i32 %29, 58
  br i1 %30, label %31, label %36

31:                                               ; preds = %26
  %32 = load ptr, ptr %6, align 8
  %33 = load i8, ptr %32, align 1
  %34 = sext i8 %33 to i32
  %35 = icmp ne i32 %34, 13
  br label %36

36:                                               ; preds = %31, %26
  %37 = phi i1 [ false, %26 ], [ %35, %31 ]
  br i1 %37, label %38, label %41

38:                                               ; preds = %36
  %39 = load ptr, ptr %6, align 8
  %40 = getelementptr inbounds nuw i8, ptr %39, i32 1
  store ptr %40, ptr %6, align 8
  br label %26, !llvm.loop !10

41:                                               ; preds = %36
  %42 = load ptr, ptr %6, align 8
  %43 = load i8, ptr %42, align 1
  %44 = sext i8 %43 to i32
  %45 = icmp ne i32 %44, 58
  br i1 %45, label %46, label %47

46:                                               ; preds = %41
  store i1 false, ptr %3, align 1
  store i32 1, ptr %7, align 4
  br label %167

47:                                               ; preds = %41
  call void @llvm.lifetime.start.p0(i64 80, ptr %8) #14
  call void @llvm.lifetime.start.p0(i64 4, ptr %9) #14
  %48 = load ptr, ptr %6, align 8
  %49 = getelementptr inbounds nuw i8, ptr %48, i32 1
  store ptr %49, ptr %6, align 8
  br label %50

50:                                               ; preds = %54, %47
  %51 = load ptr, ptr %6, align 8
  %52 = load i8, ptr %51, align 1
  %53 = call zeroext i1 @pg_isblank(i8 noundef signext %52)
  br i1 %53, label %54, label %57

54:                                               ; preds = %50
  %55 = load ptr, ptr %6, align 8
  %56 = getelementptr inbounds nuw i8, ptr %55, i32 1
  store ptr %56, ptr %6, align 8
  br label %50, !llvm.loop !11

57:                                               ; preds = %50
  store i32 0, ptr %9, align 4
  br label %58

58:                                               ; preds = %77, %57
  %59 = load ptr, ptr %6, align 8
  %60 = load i8, ptr %59, align 1
  %61 = sext i8 %60 to i32
  %62 = icmp ne i32 %61, 58
  br i1 %62, label %63, label %75

63:                                               ; preds = %58
  %64 = load ptr, ptr %6, align 8
  %65 = load i8, ptr %64, align 1
  %66 = sext i8 %65 to i32
  %67 = icmp ne i32 %66, 13
  br i1 %67, label %68, label %75

68:                                               ; preds = %63
  %69 = load ptr, ptr %6, align 8
  %70 = load i8, ptr %69, align 1
  %71 = call zeroext i1 @pg_isblank(i8 noundef signext %70)
  br i1 %71, label %75, label %72

72:                                               ; preds = %68
  %73 = load i32, ptr %9, align 4
  %74 = icmp slt i32 %73, 79
  br label %75

75:                                               ; preds = %72, %68, %63, %58
  %76 = phi i1 [ false, %68 ], [ false, %63 ], [ false, %58 ], [ %74, %72 ]
  br i1 %76, label %77, label %85

77:                                               ; preds = %75
  %78 = load ptr, ptr %6, align 8
  %79 = getelementptr inbounds nuw i8, ptr %78, i32 1
  store ptr %79, ptr %6, align 8
  %80 = load i8, ptr %78, align 1
  %81 = load i32, ptr %9, align 4
  %82 = add i32 %81, 1
  store i32 %82, ptr %9, align 4
  %83 = sext i32 %81 to i64
  %84 = getelementptr inbounds [80 x i8], ptr %8, i64 0, i64 %83
  store i8 %80, ptr %84, align 1
  br label %58, !llvm.loop !12

85:                                               ; preds = %75
  %86 = load i32, ptr %9, align 4
  %87 = sext i32 %86 to i64
  %88 = getelementptr inbounds [80 x i8], ptr %8, i64 0, i64 %87
  store i8 0, ptr %88, align 1
  br label %89

89:                                               ; preds = %93, %85
  %90 = load ptr, ptr %6, align 8
  %91 = load i8, ptr %90, align 1
  %92 = call zeroext i1 @pg_isblank(i8 noundef signext %91)
  br i1 %92, label %93, label %96

93:                                               ; preds = %89
  %94 = load ptr, ptr %6, align 8
  %95 = getelementptr inbounds nuw i8, ptr %94, i32 1
  store ptr %95, ptr %6, align 8
  br label %89, !llvm.loop !13

96:                                               ; preds = %89
  %97 = getelementptr inbounds [80 x i8], ptr %8, i64 0, i64 0
  %98 = call i32 @strcmp(ptr noundef %97, ptr noundef @.str.46) #17
  %99 = icmp ne i32 %98, 0
  br i1 %99, label %100, label %101

100:                                              ; preds = %96
  store i1 false, ptr %3, align 1
  store i32 1, ptr %7, align 4
  br label %166

101:                                              ; preds = %96
  %102 = load ptr, ptr %6, align 8
  %103 = load i8, ptr %102, align 1
  %104 = sext i8 %103 to i32
  %105 = icmp ne i32 %104, 58
  br i1 %105, label %106, label %107

106:                                              ; preds = %101
  store i1 false, ptr %3, align 1
  store i32 1, ptr %7, align 4
  br label %166

107:                                              ; preds = %101
  %108 = load ptr, ptr %6, align 8
  %109 = getelementptr inbounds nuw i8, ptr %108, i32 1
  store ptr %109, ptr %6, align 8
  br label %110

110:                                              ; preds = %122, %107
  %111 = load ptr, ptr %6, align 8
  %112 = load i8, ptr %111, align 1
  %113 = sext i8 %112 to i32
  %114 = icmp ne i32 %113, 58
  br i1 %114, label %115, label %120

115:                                              ; preds = %110
  %116 = load ptr, ptr %6, align 8
  %117 = load i8, ptr %116, align 1
  %118 = sext i8 %117 to i32
  %119 = icmp ne i32 %118, 13
  br label %120

120:                                              ; preds = %115, %110
  %121 = phi i1 [ false, %110 ], [ %119, %115 ]
  br i1 %121, label %122, label %125

122:                                              ; preds = %120
  %123 = load ptr, ptr %6, align 8
  %124 = getelementptr inbounds nuw i8, ptr %123, i32 1
  store ptr %124, ptr %6, align 8
  br label %110, !llvm.loop !14

125:                                              ; preds = %120
  %126 = load ptr, ptr %6, align 8
  %127 = load i8, ptr %126, align 1
  %128 = sext i8 %127 to i32
  %129 = icmp ne i32 %128, 58
  br i1 %129, label %130, label %131

130:                                              ; preds = %125
  store i1 false, ptr %3, align 1
  store i32 1, ptr %7, align 4
  br label %166

131:                                              ; preds = %125
  %132 = load ptr, ptr %6, align 8
  %133 = getelementptr inbounds nuw i8, ptr %132, i32 1
  store ptr %133, ptr %6, align 8
  br label %134

134:                                              ; preds = %138, %131
  %135 = load ptr, ptr %6, align 8
  %136 = load i8, ptr %135, align 1
  %137 = call zeroext i1 @pg_isblank(i8 noundef signext %136)
  br i1 %137, label %138, label %141

138:                                              ; preds = %134
  %139 = load ptr, ptr %6, align 8
  %140 = getelementptr inbounds nuw i8, ptr %139, i32 1
  store ptr %140, ptr %6, align 8
  br label %134, !llvm.loop !15

141:                                              ; preds = %134
  store i32 0, ptr %9, align 4
  br label %142

142:                                              ; preds = %152, %141
  %143 = load ptr, ptr %6, align 8
  %144 = load i8, ptr %143, align 1
  %145 = sext i8 %144 to i32
  %146 = icmp ne i32 %145, 13
  br i1 %146, label %147, label %150

147:                                              ; preds = %142
  %148 = load i32, ptr %9, align 4
  %149 = icmp slt i32 %148, 512
  br label %150

150:                                              ; preds = %147, %142
  %151 = phi i1 [ false, %142 ], [ %149, %147 ]
  br i1 %151, label %152, label %161

152:                                              ; preds = %150
  %153 = load ptr, ptr %6, align 8
  %154 = getelementptr inbounds nuw i8, ptr %153, i32 1
  store ptr %154, ptr %6, align 8
  %155 = load i8, ptr %153, align 1
  %156 = load ptr, ptr %5, align 8
  %157 = load i32, ptr %9, align 4
  %158 = add i32 %157, 1
  store i32 %158, ptr %9, align 4
  %159 = sext i32 %157 to i64
  %160 = getelementptr inbounds i8, ptr %156, i64 %159
  store i8 %155, ptr %160, align 1
  br label %142, !llvm.loop !16

161:                                              ; preds = %150
  %162 = load ptr, ptr %5, align 8
  %163 = load i32, ptr %9, align 4
  %164 = sext i32 %163 to i64
  %165 = getelementptr inbounds i8, ptr %162, i64 %164
  store i8 0, ptr %165, align 1
  store i1 true, ptr %3, align 1
  store i32 1, ptr %7, align 4
  br label %166

166:                                              ; preds = %161, %130, %106, %100
  call void @llvm.lifetime.end.p0(i64 4, ptr %9) #14
  call void @llvm.lifetime.end.p0(i64 80, ptr %8) #14
  br label %167

167:                                              ; preds = %166, %46, %24, %14
  call void @llvm.lifetime.end.p0(i64 8, ptr %6) #14
  %168 = load i1, ptr %3, align 1
  ret i1 %168
}