; Function Attrs: nounwind uwtable
define internal fastcc noundef zeroext i1 @interpret_ident_response(ptr noundef nonnull readonly captures(none) %0, ptr noundef nonnull writeonly captures(none) %1) unnamed_addr #0 {
  %3 = alloca [80 x i8], align 16
  %4 = tail call i64 @strlen(ptr noundef nonnull dereferenceable(1) %0) #19
  %5 = icmp ult i64 %4, 2
  br i1 %5, label %.loopexit64, label %6

6:                                                ; preds = %2
  %7 = getelementptr i8, ptr %0, i64 %4
  %8 = getelementptr i8, ptr %7, i64 -2
  %9 = load i8, ptr %8, align 1
  %.not49 = icmp eq i8 %9, 13
  br i1 %.not49, label %.preheader63, label %.loopexit64

.preheader63:                                     ; preds = %6, %11
  %.041 = phi ptr [ %12, %11 ], [ %0, %6 ]
  %10 = load i8, ptr %.041, align 1
  switch i8 %10, label %11 [
    i8 58, label %13
    i8 13, label %.loopexit64
  ]

11:                                               ; preds = %.preheader63
  %12 = getelementptr inbounds nuw i8, ptr %.041, i64 1
  br label %.preheader63, !llvm.loop !27

13:                                               ; preds = %.preheader63
  call void @llvm.lifetime.start.p0(i64 80, ptr nonnull %3) #16
  br label %14

14:                                               ; preds = %14, %13
  %.041.pn = phi ptr [ %.041, %13 ], [ %.142, %14 ]
  %.142 = getelementptr inbounds nuw i8, ptr %.041.pn, i64 1
  %15 = load i8, ptr %.142, align 1
  %16 = tail call zeroext i1 @pg_isblank(i8 noundef signext %15) #16
  br i1 %16, label %14, label %.preheader62, !llvm.loop !28

.preheader62:                                     ; preds = %14, %21
  %indvars.iv = phi i64 [ %indvars.iv.next, %21 ], [ 0, %14 ]
  %.2 = phi ptr [ %22, %21 ], [ %.142, %14 ]
  %17 = load i8, ptr %.2, align 1
  switch i8 %17, label %18 [
    i8 58, label %.critedge2
    i8 13, label %.critedge2
  ]

18:                                               ; preds = %.preheader62
  %19 = tail call zeroext i1 @pg_isblank(i8 noundef signext %17) #16
  %20 = icmp samesign ugt i64 %indvars.iv, 78
  %or.cond.not = select i1 %19, i1 true, i1 %20
  br i1 %or.cond.not, label %.critedge2, label %21

21:                                               ; preds = %18
  %22 = getelementptr inbounds nuw i8, ptr %.2, i64 1
  %23 = load i8, ptr %.2, align 1
  %indvars.iv.next = add nuw nsw i64 %indvars.iv, 1
  %24 = getelementptr inbounds nuw [80 x i8], ptr %3, i64 0, i64 %indvars.iv
  store i8 %23, ptr %24, align 1
  br label %.preheader62, !llvm.loop !29

.critedge2:                                       ; preds = %.preheader62, %.preheader62, %18
  %25 = and i64 %indvars.iv, 4294967295
  %26 = getelementptr inbounds nuw [80 x i8], ptr %3, i64 0, i64 %25
  store i8 0, ptr %26, align 1
  br label %27

27:                                               ; preds = %27, %.critedge2
  %.3 = phi ptr [ %.2, %.critedge2 ], [ %30, %27 ]
  %28 = load i8, ptr %.3, align 1
  %29 = tail call zeroext i1 @pg_isblank(i8 noundef signext %28) #16
  %30 = getelementptr inbounds nuw i8, ptr %.3, i64 1
  br i1 %29, label %27, label %31, !llvm.loop !30

31:                                               ; preds = %27
  %bcmp = call i32 @bcmp(ptr noundef nonnull dereferenceable(7) %3, ptr noundef nonnull dereferenceable(7) @.str.46, i64 7)
  %.not = icmp eq i32 %bcmp, 0
  br i1 %.not, label %32, label %.loopexit

32:                                               ; preds = %31
  %33 = load i8, ptr %.3, align 1
  %.not56 = icmp eq i8 %33, 58
  br i1 %.not56, label %.preheader61, label %.loopexit

.preheader61:                                     ; preds = %32, %.preheader61
  %.3.pn = phi ptr [ %.4, %.preheader61 ], [ %.3, %32 ]
  %.4 = getelementptr inbounds nuw i8, ptr %.3.pn, i64 1
  %34 = load i8, ptr %.4, align 1
  switch i8 %34, label %.preheader61 [
    i8 58, label %.preheader60
    i8 13, label %.loopexit
  ]

.preheader60:                                     ; preds = %.preheader61, %.preheader60
  %.4.pn = phi ptr [ %.5, %.preheader60 ], [ %.4, %.preheader61 ]
  %.5 = getelementptr inbounds nuw i8, ptr %.4.pn, i64 1
  %35 = load i8, ptr %.5, align 1
  %36 = tail call zeroext i1 @pg_isblank(i8 noundef signext %35) #16
  br i1 %36, label %.preheader60, label %.preheader, !llvm.loop !31

.preheader:                                       ; preds = %.preheader60
  %37 = load i8, ptr %.5, align 1
  %.not69 = icmp eq i8 %37, 13
  br i1 %.not69, label %._crit_edge, label %.lr.ph

.lr.ph:                                           ; preds = %.preheader, %.lr.ph
  %indvars.iv73 = phi i64 [ %indvars.iv.next74, %.lr.ph ], [ 0, %.preheader ]
  %38 = phi i8 [ %41, %.lr.ph ], [ %37, %.preheader ]
  %.667 = phi ptr [ %39, %.lr.ph ], [ %.5, %.preheader ]
  %39 = getelementptr inbounds nuw i8, ptr %.667, i64 1
  %indvars.iv.next74 = add nuw nsw i64 %indvars.iv73, 1
  %40 = getelementptr inbounds nuw i8, ptr %1, i64 %indvars.iv73
  store i8 %38, ptr %40, align 1
  %41 = load i8, ptr %39, align 1
  %42 = icmp ne i8 %41, 13
  %43 = icmp samesign ult i64 %indvars.iv73, 511
  %44 = select i1 %42, i1 %43, i1 false
  br i1 %44, label %.lr.ph, label %._crit_edge, !llvm.loop !32

._crit_edge:                                      ; preds = %.lr.ph, %.preheader
  %.1.lcssa = phi i64 [ 0, %.preheader ], [ %indvars.iv.next74, %.lr.ph ]
  %45 = getelementptr inbounds nuw i8, ptr %1, i64 %.1.lcssa
  store i8 0, ptr %45, align 1
  br label %.loopexit

.loopexit:                                        ; preds = %.preheader61, %32, %31, %._crit_edge
  %.144 = phi i1 [ true, %._crit_edge ], [ false, %31 ], [ false, %32 ], [ false, %.preheader61 ]
  call void @llvm.lifetime.end.p0(i64 80, ptr nonnull %3) #16
  br label %.loopexit64

.loopexit64:                                      ; preds = %.preheader63, %6, %2, %.loopexit
  %.043 = phi i1 [ %.144, %.loopexit ], [ false, %2 ], [ false, %6 ], [ false, %.preheader63 ]
  ret i1 %.043
}